target datalayout = "e-m:e-p270:32:32-p271:32:32-p272:64:64-i64:64-i128:128-f80:128-n8:16:32:64-S128"
target triple = "x86_64-pc-linux-gnu"

%struct._dfilter_loc = type { i64, i64 }

@.str.22 = private unnamed_addr constant [3 x i8] c"%s\00", align 1

; Function Attrs: null_pointer_is_valid sspstrong uwtable
define internal void @do_unary_minus(ptr noundef %0, ptr noundef %1, ptr noundef %2) #0 {
  %4 = alloca ptr, align 8
  %5 = alloca ptr, align 8
  %6 = alloca ptr, align 8
  %7 = alloca ptr, align 8
  %8 = alloca ptr, align 8
  %9 = alloca %struct._dfilter_loc, align 8
  store ptr %0, ptr %4, align 8
  store ptr %1, ptr %5, align 8
  store ptr %2, ptr %6, align 8
  call void @llvm.lifetime.start.p0(i64 8, ptr %7) #8
  call void @llvm.lifetime.start.p0(i64 8, ptr %8) #8
  %10 = load ptr, ptr %6, align 8
  %11 = call ptr @stnode_data(ptr noundef %10)
  %12 = call ptr @fvalue_unary_minus(ptr noundef %11, ptr noundef %7)
  store ptr %12, ptr %8, align 8
  %13 = load ptr, ptr %8, align 8
  %14 = icmp eq ptr %13, null
  br i1 %14, label %15, label %35

15:                                               ; preds = %3
  br label %16

16:                                               ; preds = %15
  br label %17

17:                                               ; preds = %16
  br label %18

18:                                               ; preds = %17
  br label %19

19:                                               ; preds = %18
  %20 = load ptr, ptr %4, align 8
  %21 = load ptr, ptr %5, align 8
  %22 = call { i64, i64 } @stnode_location(ptr noundef %21)
  %23 = getelementptr inbounds nuw { i64, i64 }, ptr %9, i32 0, i32 0
  %24 = extractvalue { i64, i64 } %22, 0
  store i64 %24, ptr %23, align 8
  %25 = getelementptr inbounds nuw { i64, i64 }, ptr %9, i32 0, i32 1
  %26 = extractvalue { i64, i64 } %22, 1
  store i64 %26, ptr %25, align 8
  %27 = load ptr, ptr %7, align 8
  %28 = getelementptr inbounds nuw { i64, i64 }, ptr %9, i32 0, i32 0
  %29 = load i64, ptr %28, align 8
  %30 = getelementptr inbounds nuw { i64, i64 }, ptr %9, i32 0, i32 1
  %31 = load i64, ptr %30, align 8
  call void (ptr, i32, i64, i64, ptr, ...) @dfilter_fail(ptr noundef %20, i32 noundef -1, i64 %29, i64 %31, ptr noundef @.str.22, ptr noundef %27)
  %32 = load ptr, ptr %7, align 8
  call void @g_free(ptr noundef %32)
  call void @except_throw(i64 noundef 1, i64 noundef 5, ptr noundef null) #7
  unreachable

33:                                               ; No predecessors!
  br label %34

34:                                               ; preds = %33
  br label %35

35:                                               ; preds = %34, %3
  %36 = load ptr, ptr %5, align 8
  %37 = load ptr, ptr %8, align 8
  call void @stnode_replace(ptr noundef %36, i32 noundef 9, ptr noundef %37)
  call void @llvm.lifetime.end.p0(i64 8, ptr %8) #8
  call void @llvm.lifetime.end.p0(i64 8, ptr %7) #8
  ret void
}