; Function Attrs: null_pointer_is_valid sspstrong uwtable
define internal fastcc void @do_unary_minus(ptr noundef %0, ptr noundef %1, ptr noundef %2) unnamed_addr #0 {
  %4 = alloca ptr, align 8
  call void @llvm.lifetime.start.p0(i64 8, ptr nonnull %4) #8
  %5 = tail call ptr @stnode_data(ptr noundef %2)
  %6 = call ptr @fvalue_unary_minus(ptr noundef %5, ptr noundef nonnull %4)
  %7 = icmp eq ptr %6, null
  br i1 %7, label %8, label %14

8:                                                ; preds = %3
  %9 = call { i64, i64 } @stnode_location(ptr noundef %1)
  %10 = extractvalue { i64, i64 } %9, 0
  %11 = extractvalue { i64, i64 } %9, 1
  %12 = load ptr, ptr %4, align 8
  call void (ptr, i32, i64, i64, ptr, ...) @dfilter_fail(ptr noundef %0, i32 noundef -1, i64 %10, i64 %11, ptr noundef nonnull @.str.22, ptr noundef %12)
  %13 = load ptr, ptr %4, align 8
  call void @g_free(ptr noundef %13)
  call void @except_throw(i64 noundef 1, i64 noundef 5, ptr noundef null) #7
  unreachable

14:                                               ; preds = %3
  call void @stnode_replace(ptr noundef %1, i32 noundef 9, ptr noundef nonnull %6)
  call void @llvm.lifetime.end.p0(i64 8, ptr nonnull %4) #8
  ret void
}